target datalayout = "e-m:e-p270:32:32-p271:32:32-p272:64:64-i64:64-i128:128-f80:128-n8:16:32:64-S128"
target triple = "x86_64-pc-linux-gnu"

@hf_eip_cert_subject_distinguished_name = internal global i32 0, align 4

; Function Attrs: null_pointer_is_valid sspstrong uwtable
define internal i32 @dissect_eip_cert_create_csr(ptr noundef %0, ptr noundef %1, ptr noundef %2, ptr noundef %3, i32 noundef %4, i1 noundef zeroext %5) #0 {
  %7 = alloca ptr, align 8
  %8 = alloca ptr, align 8
  %9 = alloca ptr, align 8
  %10 = alloca ptr, align 8
  %11 = alloca i32, align 4
  %12 = alloca i8, align 1
  %13 = alloca i32, align 4
  %14 = alloca i32, align 4
  store ptr %0, ptr %7, align 8
  store ptr %1, ptr %8, align 8
  store ptr %2, ptr %9, align 8
  store ptr %3, ptr %10, align 8
  store i32 %4, ptr %11, align 4
  %15 = zext i1 %5 to i8
  store i8 %15, ptr %12, align 1
  call void @llvm.lifetime.start.p0(i64 4, ptr %13) #14
  %16 = load i8, ptr %12, align 1, !range !9, !noundef !10
  %17 = trunc i8 %16 to i1
  br i1 %17, label %18, label %110

18:                                               ; preds = %6
  call void @llvm.lifetime.start.p0(i64 4, ptr %14) #14
  %19 = load i32, ptr %11, align 4
  store i32 %19, ptr %14, align 4
  %20 = load ptr, ptr %7, align 8
  %21 = load ptr, ptr %8, align 8
  %22 = load ptr, ptr %9, align 8
  %23 = load ptr, ptr %10, align 8
  %24 = load i32, ptr %11, align 4
  %25 = load i32, ptr @hf_eip_cert_subject_distinguished_name, align 4
  %26 = call i32 @dissect_cip_string_type(ptr noundef %20, ptr noundef %21, ptr noundef %22, ptr noundef %23, i32 noundef %24, i32 noundef %25, i32 noundef 218)
  %27 = load i32, ptr %11, align 4
  %28 = add i32 %27, %26
  store i32 %28, ptr %11, align 4
  %29 = load ptr, ptr %7, align 8
  %30 = load ptr, ptr %8, align 8
  %31 = load ptr, ptr %9, align 8
  %32 = load ptr, ptr %10, align 8
  %33 = load i32, ptr %11, align 4
  %34 = load i32, ptr @hf_eip_cert_subject_distinguished_name, align 4
  %35 = call i32 @dissect_cip_string_type(ptr noundef %29, ptr noundef %30, ptr noundef %31, ptr noundef %32, i32 noundef %33, i32 noundef %34, i32 noundef 218)
  %36 = load i32, ptr %11, align 4
  %37 = add i32 %36, %35
  store i32 %37, ptr %11, align 4
  %38 = load ptr, ptr %7, align 8
  %39 = load ptr, ptr %8, align 8
  %40 = load ptr, ptr %9, align 8
  %41 = load ptr, ptr %10, align 8
  %42 = load i32, ptr %11, align 4
  %43 = load i32, ptr @hf_eip_cert_subject_distinguished_name, align 4
  %44 = call i32 @dissect_cip_string_type(ptr noundef %38, ptr noundef %39, ptr noundef %40, ptr noundef %41, i32 noundef %42, i32 noundef %43, i32 noundef 218)
  %45 = load i32, ptr %11, align 4
  %46 = add i32 %45, %44
  store i32 %46, ptr %11, align 4
  %47 = load ptr, ptr %7, align 8
  %48 = load ptr, ptr %8, align 8
  %49 = load ptr, ptr %9, align 8
  %50 = load ptr, ptr %10, align 8
  %51 = load i32, ptr %11, align 4
  %52 = load i32, ptr @hf_eip_cert_subject_distinguished_name, align 4
  %53 = call i32 @dissect_cip_string_type(ptr noundef %47, ptr noundef %48, ptr noundef %49, ptr noundef %50, i32 noundef %51, i32 noundef %52, i32 noundef 218)
  %54 = load i32, ptr %11, align 4
  %55 = add i32 %54, %53
  store i32 %55, ptr %11, align 4
  %56 = load ptr, ptr %7, align 8
  %57 = load ptr, ptr %8, align 8
  %58 = load ptr, ptr %9, align 8
  %59 = load ptr, ptr %10, align 8
  %60 = load i32, ptr %11, align 4
  %61 = load i32, ptr @hf_eip_cert_subject_distinguished_name, align 4
  %62 = call i32 @dissect_cip_string_type(ptr noundef %56, ptr noundef %57, ptr noundef %58, ptr noundef %59, i32 noundef %60, i32 noundef %61, i32 noundef 218)
  %63 = load i32, ptr %11, align 4
  %64 = add i32 %63, %62
  store i32 %64, ptr %11, align 4
  %65 = load ptr, ptr %7, align 8
  %66 = load ptr, ptr %8, align 8
  %67 = load ptr, ptr %9, align 8
  %68 = load ptr, ptr %10, align 8
  %69 = load i32, ptr %11, align 4
  %70 = load i32, ptr @hf_eip_cert_subject_distinguished_name, align 4
  %71 = call i32 @dissect_cip_string_type(ptr noundef %65, ptr noundef %66, ptr noundef %67, ptr noundef %68, i32 noundef %69, i32 noundef %70, i32 noundef 218)
  %72 = load i32, ptr %11, align 4
  %73 = add i32 %72, %71
  store i32 %73, ptr %11, align 4
  %74 = load ptr, ptr %7, align 8
  %75 = load ptr, ptr %8, align 8
  %76 = load ptr, ptr %9, align 8
  %77 = load ptr, ptr %10, align 8
  %78 = load i32, ptr %11, align 4
  %79 = load i32, ptr @hf_eip_cert_subject_distinguished_name, align 4
  %80 = call i32 @dissect_cip_string_type(ptr noundef %74, ptr noundef %75, ptr noundef %76, ptr noundef %77, i32 noundef %78, i32 noundef %79, i32 noundef 218)
  %81 = load i32, ptr %11, align 4
  %82 = add i32 %81, %80
  store i32 %82, ptr %11, align 4
  %83 = load ptr, ptr %7, align 8
  %84 = load ptr, ptr %8, align 8
  %85 = load ptr, ptr %9, align 8
  %86 = load ptr, ptr %10, align 8
  %87 = load i32, ptr %11, align 4
  %88 = load i32, ptr @hf_eip_cert_subject_distinguished_name, align 4
  %89 = call i32 @dissect_cip_string_type(ptr noundef %83, ptr noundef %84, ptr noundef %85, ptr noundef %86, i32 noundef %87, i32 noundef %88, i32 noundef 218)
  %90 = load i32, ptr %11, align 4
  %91 = add i32 %90, %89
  store i32 %91, ptr %11, align 4
  %92 = load ptr, ptr %10, align 8
  %93 = load i32, ptr %11, align 4
  %94 = call i32 @tvb_reported_length_remaining(ptr noundef %92, i32 noundef %93)
  %95 = icmp sgt i32 %94, 0
  br i1 %95, label %96, label %106

96:                                               ; preds = %18
  %97 = load ptr, ptr %7, align 8
  %98 = load ptr, ptr %8, align 8
  %99 = load ptr, ptr %9, align 8
  %100 = load ptr, ptr %10, align 8
  %101 = load i32, ptr %11, align 4
  %102 = load i32, ptr @hf_eip_cert_subject_distinguished_name, align 4
  %103 = call i32 @dissect_cip_string_type(ptr noundef %97, ptr noundef %98, ptr noundef %99, ptr noundef %100, i32 noundef %101, i32 noundef %102, i32 noundef 218)
  %104 = load i32, ptr %11, align 4
  %105 = add i32 %104, %103
  store i32 %105, ptr %11, align 4
  br label %106

106:                                              ; preds = %96, %18
  %107 = load i32, ptr %11, align 4
  %108 = load i32, ptr %14, align 4
  %109 = sub i32 %107, %108
  store i32 %109, ptr %13, align 4
  call void @llvm.lifetime.end.p0(i64 4, ptr %14) #14
  br label %120

110:                                              ; preds = %6
  %111 = load ptr, ptr %7, align 8
  %112 = load ptr, ptr %8, align 8
  %113 = load ptr, ptr %9, align 8
  %114 = load ptr, ptr %10, align 8
  %115 = load i32, ptr %11, align 4
  %116 = load ptr, ptr %10, align 8
  %117 = load i32, ptr %11, align 4
  %118 = call i32 @tvb_reported_length_remaining(ptr noundef %116, i32 noundef %117)
  %119 = call i32 @dissect_padded_epath_len_usint(ptr noundef %111, ptr noundef %112, ptr noundef %113, ptr noundef %114, i32 noundef %115, i32 noundef %118)
  store i32 %119, ptr %13, align 4
  br label %120

120:                                              ; preds = %110, %106
  %121 = load i32, ptr %13, align 4
  call void @llvm.lifetime.end.p0(i64 4, ptr %13) #14
  ret i32 %121
}