; Function Attrs: null_pointer_is_valid sspstrong uwtable
define internal i32 @dissect_eip_cert_create_csr(ptr noundef %0, ptr noundef %1, ptr noundef %2, ptr noundef %3, i32 noundef %4, i1 noundef zeroext %5) #0 {
  br i1 %5, label %7, label %40

7:                                                ; preds = %6
  %8 = load i32, ptr @hf_eip_cert_subject_distinguished_name, align 4
  %9 = tail call i32 @dissect_cip_string_type(ptr noundef %0, ptr noundef %1, ptr noundef %2, ptr noundef %3, i32 noundef %4, i32 noundef %8, i32 noundef 218)
  %10 = add i32 %9, %4
  %11 = load i32, ptr @hf_eip_cert_subject_distinguished_name, align 4
  %12 = tail call i32 @dissect_cip_string_type(ptr noundef %0, ptr noundef %1, ptr noundef %2, ptr noundef %3, i32 noundef %10, i32 noundef %11, i32 noundef 218)
  %13 = add i32 %12, %10
  %14 = load i32, ptr @hf_eip_cert_subject_distinguished_name, align 4
  %15 = tail call i32 @dissect_cip_string_type(ptr noundef %0, ptr noundef %1, ptr noundef %2, ptr noundef %3, i32 noundef %13, i32 noundef %14, i32 noundef 218)
  %16 = add i32 %15, %13
  %17 = load i32, ptr @hf_eip_cert_subject_distinguished_name, align 4
  %18 = tail call i32 @dissect_cip_string_type(ptr noundef %0, ptr noundef %1, ptr noundef %2, ptr noundef %3, i32 noundef %16, i32 noundef %17, i32 noundef 218)
  %19 = add i32 %18, %16
  %20 = load i32, ptr @hf_eip_cert_subject_distinguished_name, align 4
  %21 = tail call i32 @dissect_cip_string_type(ptr noundef %0, ptr noundef %1, ptr noundef %2, ptr noundef %3, i32 noundef %19, i32 noundef %20, i32 noundef 218)
  %22 = add i32 %21, %19
  %23 = load i32, ptr @hf_eip_cert_subject_distinguished_name, align 4
  %24 = tail call i32 @dissect_cip_string_type(ptr noundef %0, ptr noundef %1, ptr noundef %2, ptr noundef %3, i32 noundef %22, i32 noundef %23, i32 noundef 218)
  %25 = add i32 %24, %22
  %26 = load i32, ptr @hf_eip_cert_subject_distinguished_name, align 4
  %27 = tail call i32 @dissect_cip_string_type(ptr noundef %0, ptr noundef %1, ptr noundef %2, ptr noundef %3, i32 noundef %25, i32 noundef %26, i32 noundef 218)
  %28 = add i32 %27, %25
  %29 = load i32, ptr @hf_eip_cert_subject_distinguished_name, align 4
  %30 = tail call i32 @dissect_cip_string_type(ptr noundef %0, ptr noundef %1, ptr noundef %2, ptr noundef %3, i32 noundef %28, i32 noundef %29, i32 noundef 218)
  %31 = add i32 %30, %28
  %32 = tail call i32 @tvb_reported_length_remaining(ptr noundef %3, i32 noundef %31)
  %33 = icmp sgt i32 %32, 0
  br i1 %33, label %34, label %38

34:                                               ; preds = %7
  %35 = load i32, ptr @hf_eip_cert_subject_distinguished_name, align 4
  %36 = tail call i32 @dissect_cip_string_type(ptr noundef %0, ptr noundef %1, ptr noundef %2, ptr noundef %3, i32 noundef %31, i32 noundef %35, i32 noundef 218)
  %37 = add i32 %36, %31
  br label %38

38:                                               ; preds = %34, %7
  %.0 = phi i32 [ %37, %34 ], [ %31, %7 ]
  %39 = sub i32 %.0, %4
  br label %43

40:                                               ; preds = %6
  %41 = tail call i32 @tvb_reported_length_remaining(ptr noundef %3, i32 noundef %4)
  %42 = tail call i32 @dissect_padded_epath_len_usint(ptr noundef %0, ptr noundef %1, ptr noundef %2, ptr noundef %3, i32 noundef %4, i32 noundef %41)
  br label %43

43:                                               ; preds = %40, %38
  %.067 = phi i32 [ %39, %38 ], [ %42, %40 ]
  ret i32 %.067
}